; Function Attrs: nounwind uwtable
define internal range(i32 0, 2) i32 @lj_cf_debug_setupvalue(ptr noundef %0) #0 {
  %2 = tail call ptr @lj_lib_checkany(ptr noundef %0, i32 noundef 3) #10
  %3 = tail call i32 @lj_lib_checkint(ptr noundef %0, i32 noundef 2) #10
  %4 = tail call ptr @lj_lib_checkfunc(ptr noundef %0, i32 noundef 1) #10
  %5 = tail call ptr @lua_setupvalue(ptr noundef %0, i32 noundef 1, i32 noundef %3) #10
  %.not16.i = icmp eq ptr %5, null
  br i1 %.not16.i, label %debug_getupvalue.exit, label %6

6:                                                ; preds = %1
  tail call void @lua_pushstring(ptr noundef %0, ptr noundef nonnull %5) #10
  br label %debug_getupvalue.exit

debug_getupvalue.exit:                            ; preds = %1, %6
  %.0.i = phi i32 [ 1, %6 ], [ 0, %1 ]
  ret i32 %.0.i
}